target datalayout = "e-m:e-p270:32:32-p271:32:32-p272:64:64-i64:64-i128:128-f80:128-n8:16:32:64-S128"
target triple = "x86_64-pc-linux-gnu"

%struct._lv_rb_t = type { ptr, ptr, i64 }
%struct._lv_rb_node_t = type { ptr, ptr, ptr, i32, ptr }

; Function Attrs: nounwind uwtable
define ptr @lv_rb_find(ptr noundef %0, ptr noundef %1) #0 {
  %3 = alloca ptr, align 8
  %4 = alloca ptr, align 8
  %5 = alloca ptr, align 8
  %6 = alloca ptr, align 8
  %7 = alloca i8, align 1
  %8 = alloca i32, align 4
  store ptr %0, ptr %4, align 8, !tbaa !3
  store ptr %1, ptr %5, align 8, !tbaa !8
  br label %9

9:                                                ; preds = %2
  %10 = load ptr, ptr %4, align 8, !tbaa !3
  %11 = icmp ne ptr %10, null
  br i1 %11, label %16, label %12

12:                                               ; preds = %9
  br label %13

13:                                               ; preds = %12
  br label %14

14:                                               ; preds = %13
  br label %15

15:                                               ; preds = %14, %15
  br label %15

16:                                               ; preds = %9
  br label %17

17:                                               ; preds = %16
  %18 = load ptr, ptr %4, align 8, !tbaa !3
  %19 = icmp eq ptr %18, null
  br i1 %19, label %20, label %21

20:                                               ; preds = %17
  store ptr null, ptr %3, align 8
  br label %61

21:                                               ; preds = %17
  call void @llvm.lifetime.start.p0(i64 8, ptr %6) #4
  %22 = load ptr, ptr %4, align 8, !tbaa !3
  %23 = getelementptr inbounds nuw %struct._lv_rb_t, ptr %22, i32 0, i32 0
  %24 = load ptr, ptr %23, align 8, !tbaa !11
  store ptr %24, ptr %6, align 8, !tbaa !16
  br label %25

25:                                               ; preds = %58, %21
  %26 = load ptr, ptr %6, align 8, !tbaa !16
  %27 = icmp ne ptr %26, null
  br i1 %27, label %28, label %59

28:                                               ; preds = %25
  call void @llvm.lifetime.start.p0(i64 1, ptr %7) #4
  %29 = load ptr, ptr %4, align 8, !tbaa !3
  %30 = getelementptr inbounds nuw %struct._lv_rb_t, ptr %29, i32 0, i32 1
  %31 = load ptr, ptr %30, align 8, !tbaa !14
  %32 = load ptr, ptr %5, align 8, !tbaa !8
  %33 = load ptr, ptr %6, align 8, !tbaa !16
  %34 = getelementptr inbounds nuw %struct._lv_rb_node_t, ptr %33, i32 0, i32 4
  %35 = load ptr, ptr %34, align 8, !tbaa !21
  %36 = call signext i8 %31(ptr noundef %32, ptr noundef %35)
  store i8 %36, ptr %7, align 1, !tbaa !24
  %37 = load i8, ptr %7, align 1, !tbaa !24
  %38 = sext i8 %37 to i32
  %39 = icmp eq i32 %38, 0
  br i1 %39, label %40, label %42

40:                                               ; preds = %28
  %41 = load ptr, ptr %6, align 8, !tbaa !16
  store ptr %41, ptr %3, align 8
  store i32 1, ptr %8, align 4
  br label %56

42:                                               ; preds = %28
  %43 = load i8, ptr %7, align 1, !tbaa !24
  %44 = sext i8 %43 to i32
  %45 = icmp slt i32 %44, 0
  br i1 %45, label %46, label %50

46:                                               ; preds = %42
  %47 = load ptr, ptr %6, align 8, !tbaa !16
  %48 = getelementptr inbounds nuw %struct._lv_rb_node_t, ptr %47, i32 0, i32 1
  %49 = load ptr, ptr %48, align 8, !tbaa !22
  store ptr %49, ptr %6, align 8, !tbaa !16
  br label %54

50:                                               ; preds = %42
  %51 = load ptr, ptr %6, align 8, !tbaa !16
  %52 = getelementptr inbounds nuw %struct._lv_rb_node_t, ptr %51, i32 0, i32 2
  %53 = load ptr, ptr %52, align 8, !tbaa !23
  store ptr %53, ptr %6, align 8, !tbaa !16
  br label %54

54:                                               ; preds = %50, %46
  br label %55

55:                                               ; preds = %54
  store i32 0, ptr %8, align 4
  br label %56

56:                                               ; preds = %55, %40
  call void @llvm.lifetime.end.p0(i64 1, ptr %7) #4
  %57 = load i32, ptr %8, align 4
  switch i32 %57, label %60 [
    i32 0, label %58
  ]

58:                                               ; preds = %56
  br label %25, !llvm.loop !25

59:                                               ; preds = %25
  store ptr null, ptr %3, align 8
  store i32 1, ptr %8, align 4
  br label %60

60:                                               ; preds = %59, %56
  call void @llvm.lifetime.end.p0(i64 8, ptr %6) #4
  br label %61

61:                                               ; preds = %60, %20
  %62 = load ptr, ptr %3, align 8
  ret ptr %62
}