; Function Attrs: nounwind uwtable
define ptr @lv_rb_find(ptr noundef readonly captures(address_is_null) %0, ptr noundef %1) local_unnamed_addr #0 {
  %.not = icmp eq ptr %0, null
  br i1 %.not, label %.preheader, label %.preheader23

.preheader23:                                     ; preds = %2
  %3 = getelementptr inbounds nuw i8, ptr %0, i64 8
  %.01424 = load ptr, ptr %0, align 8, !tbaa !12
  %.not1925 = icmp eq ptr %.01424, null
  br i1 %.not1925, label %.thread, label %.lr.ph

.preheader:                                       ; preds = %2, %.preheader
  br label %.preheader

.lr.ph:                                           ; preds = %.preheader23, %8
  %.01426 = phi ptr [ %.014, %8 ], [ %.01424, %.preheader23 ]
  %4 = load ptr, ptr %3, align 8, !tbaa !10
  %5 = getelementptr inbounds nuw i8, ptr %.01426, i64 32
  %6 = load ptr, ptr %5, align 8, !tbaa !13
  %7 = tail call signext i8 %4(ptr noundef %1, ptr noundef %6) #5
  %.not20 = icmp eq i8 %7, 0
  br i1 %.not20, label %.thread, label %8

8:                                                ; preds = %.lr.ph
  %9 = icmp slt i8 %7, 0
  %.216.in.v = select i1 %9, i64 8, i64 16
  %.216.in = getelementptr inbounds nuw i8, ptr %.01426, i64 %.216.in.v
  %.014 = load ptr, ptr %.216.in, align 8, !tbaa !12
  %.not19 = icmp eq ptr %.014, null
  br i1 %.not19, label %.thread, label %.lr.ph, !llvm.loop !16

.thread:                                          ; preds = %8, %.lr.ph, %.preheader23
  %.014.lcssa = phi ptr [ null, %.preheader23 ], [ %.01426, %.lr.ph ], [ null, %8 ]
  ret ptr %.014.lcssa
}